; Function Attrs: nounwind uwtable
define internal fastcc void @php_date_sub(ptr nocapture %.0.val, ptr nocapture noundef readonly %0) unnamed_addr #0 {
  %2 = getelementptr inbounds i8, ptr %.0.val, i64 -8
  %3 = load ptr, ptr %2, align 8
  %.not = icmp eq ptr %3, null
  br i1 %.not, label %4, label %32

4:                                                ; preds = %1
  %5 = getelementptr inbounds i8, ptr %.0.val, i64 16
  %6 = load ptr, ptr %5, align 8
  %7 = load i8, ptr %6, align 8
  %8 = icmp eq i8 %7, 1
  br i1 %8, label %9, label %.preheader.i

9:                                                ; preds = %4
  %10 = load ptr, ptr @date_ce_date_object_error, align 8
  %11 = getelementptr inbounds i8, ptr %6, i64 8
  %12 = load ptr, ptr %11, align 8
  %13 = getelementptr inbounds i8, ptr %12, i64 24
  tail call void (ptr, ptr, ...) @zend_throw_error(ptr noundef %10, ptr noundef nonnull @.str.383, ptr noundef nonnull %13) #25
  br label %date_throw_uninitialized_error.exit

.preheader.i:                                     ; preds = %4, %.preheader.i
  %.0.i = phi ptr [ %15, %.preheader.i ], [ %6, %4 ]
  %14 = getelementptr inbounds i8, ptr %.0.i, i64 16
  %15 = load ptr, ptr %14, align 8
  %.not.i = icmp ne ptr %15, null
  %.pr.i = load i8, ptr %.0.i, align 8
  %16 = icmp eq i8 %.pr.i, 2
  %or.cond = select i1 %.not.i, i1 %16, i1 false
  br i1 %or.cond, label %.preheader.i, label %.critedge.i

.critedge.i:                                      ; preds = %.preheader.i
  %.not12.i = icmp eq i8 %.pr.i, 1
  br i1 %.not12.i, label %22, label %17

17:                                               ; preds = %.critedge.i
  %18 = load ptr, ptr @date_ce_date_object_error, align 8
  %19 = getelementptr inbounds i8, ptr %6, i64 8
  %20 = load ptr, ptr %19, align 8
  %21 = getelementptr inbounds i8, ptr %20, i64 24
  tail call void (ptr, ptr, ...) @zend_throw_error(ptr noundef %18, ptr noundef nonnull @.str.384, ptr noundef nonnull %21) #25
  br label %22

22:                                               ; preds = %17, %.critedge.i
  %23 = load ptr, ptr @date_ce_date_object_error, align 8
  %24 = getelementptr inbounds i8, ptr %6, i64 8
  %25 = load ptr, ptr %24, align 8
  %26 = getelementptr inbounds i8, ptr %25, i64 24
  %27 = getelementptr inbounds i8, ptr %.0.i, i64 8
  %28 = load ptr, ptr %27, align 8
  %29 = getelementptr inbounds i8, ptr %28, i64 24
  tail call void (ptr, ptr, ...) @zend_throw_error(ptr noundef %23, ptr noundef nonnull @.str.385, ptr noundef nonnull %26, ptr noundef nonnull %29) #25
  br label %date_throw_uninitialized_error.exit

date_throw_uninitialized_error.exit:              ; preds = %9, %22
  %30 = load ptr, ptr getelementptr inbounds (%struct._zend_executor_globals, ptr @executor_globals, i64 0, i32 50), align 8
  %31 = icmp ne ptr %30, null
  tail call void @llvm.assume(i1 %31)
  br label %84

32:                                               ; preds = %1
  %33 = load ptr, ptr %0, align 8
  %34 = getelementptr inbounds i8, ptr %33, i64 -8
  %35 = load i8, ptr %34, align 8
  %36 = and i8 %35, 1
  %.not16 = icmp eq i8 %36, 0
  br i1 %.not16, label %37, label %65

37:                                               ; preds = %32
  %38 = getelementptr inbounds i8, ptr %33, i64 16
  %39 = load ptr, ptr %38, align 8
  %40 = load i8, ptr %39, align 8
  %41 = icmp eq i8 %40, 1
  br i1 %41, label %42, label %.preheader.i19

42:                                               ; preds = %37
  %43 = load ptr, ptr @date_ce_date_object_error, align 8
  %44 = getelementptr inbounds i8, ptr %39, i64 8
  %45 = load ptr, ptr %44, align 8
  %46 = getelementptr inbounds i8, ptr %45, i64 24
  tail call void (ptr, ptr, ...) @zend_throw_error(ptr noundef %43, ptr noundef nonnull @.str.383, ptr noundef nonnull %46) #25
  br label %date_throw_uninitialized_error.exit26

.preheader.i19:                                   ; preds = %37, %.preheader.i19
  %.0.i20 = phi ptr [ %48, %.preheader.i19 ], [ %39, %37 ]
  %47 = getelementptr inbounds i8, ptr %.0.i20, i64 16
  %48 = load ptr, ptr %47, align 8
  %.not.i21 = icmp ne ptr %48, null
  %.pr.i25 = load i8, ptr %.0.i20, align 8
  %49 = icmp eq i8 %.pr.i25, 2
  %or.cond21 = select i1 %.not.i21, i1 %49, i1 false
  br i1 %or.cond21, label %.preheader.i19, label %.critedge.i22

.critedge.i22:                                    ; preds = %.preheader.i19
  %.not12.i23 = icmp eq i8 %.pr.i25, 1
  br i1 %.not12.i23, label %55, label %50

50:                                               ; preds = %.critedge.i22
  %51 = load ptr, ptr @date_ce_date_object_error, align 8
  %52 = getelementptr inbounds i8, ptr %39, i64 8
  %53 = load ptr, ptr %52, align 8
  %54 = getelementptr inbounds i8, ptr %53, i64 24
  tail call void (ptr, ptr, ...) @zend_throw_error(ptr noundef %51, ptr noundef nonnull @.str.384, ptr noundef nonnull %54) #25
  br label %55

55:                                               ; preds = %50, %.critedge.i22
  %56 = load ptr, ptr @date_ce_date_object_error, align 8
  %57 = getelementptr inbounds i8, ptr %39, i64 8
  %58 = load ptr, ptr %57, align 8
  %59 = getelementptr inbounds i8, ptr %58, i64 24
  %60 = getelementptr inbounds i8, ptr %.0.i20, i64 8
  %61 = load ptr, ptr %60, align 8
  %62 = getelementptr inbounds i8, ptr %61, i64 24
  tail call void (ptr, ptr, ...) @zend_throw_error(ptr noundef %56, ptr noundef nonnull @.str.385, ptr noundef nonnull %59, ptr noundef nonnull %62) #25
  br label %date_throw_uninitialized_error.exit26

date_throw_uninitialized_error.exit26:            ; preds = %42, %55
  %63 = load ptr, ptr getelementptr inbounds (%struct._zend_executor_globals, ptr @executor_globals, i64 0, i32 50), align 8
  %64 = icmp ne ptr %63, null
  tail call void @llvm.assume(i1 %64)
  br label %84

65:                                               ; preds = %32
  %66 = getelementptr inbounds i8, ptr %33, i64 -32
  %67 = load ptr, ptr %66, align 8
  %68 = getelementptr inbounds i8, ptr %67, i64 96
  %69 = load i32, ptr %68, align 8
  %.not17 = icmp eq i32 %69, 0
  br i1 %.not17, label %70, label %73

70:                                               ; preds = %65
  %71 = getelementptr inbounds i8, ptr %67, i64 100
  %72 = load i32, ptr %71, align 4
  %.not18 = icmp eq i32 %72, 0
  br i1 %.not18, label %74, label %73

73:                                               ; preds = %70, %65
  tail call void (ptr, i32, ptr, ...) @php_error_docref(ptr noundef null, i32 noundef 2, ptr noundef nonnull @.str.403) #25
  br label %84

74:                                               ; preds = %70
  %75 = getelementptr inbounds i8, ptr %33, i64 -24
  %76 = load i32, ptr %75, align 8
  %77 = icmp eq i32 %76, 2
  br i1 %77, label %78, label %80

78:                                               ; preds = %74
  %79 = tail call ptr @timelib_sub_wall(ptr noundef nonnull %3, ptr noundef nonnull %67) #25
  br label %82

80:                                               ; preds = %74
  %81 = tail call ptr @timelib_sub(ptr noundef nonnull %3, ptr noundef nonnull %67) #25
  br label %82

82:                                               ; preds = %80, %78
  %.0 = phi ptr [ %79, %78 ], [ %81, %80 ]
  %83 = load ptr, ptr %2, align 8
  tail call void @timelib_time_dtor(ptr noundef %83) #25
  store ptr %.0, ptr %2, align 8
  br label %84

84:                                               ; preds = %82, %73, %date_throw_uninitialized_error.exit26, %date_throw_uninitialized_error.exit
  ret void
}